; Function Attrs: mustprogress uwtable
define void @_ZN2cv4gapi6python13GPythonKernelC2ESt8functionIFSt6vectorINS_7GRunArgESaIS5_EERKNS1_14GPythonContextEEES3_IFNS_4GArgERKS4_INS_4util7variantIJNSE_9monostateENS_8GMatDescENS_11GScalarDescENS_10GArrayDescENS_11GOpaqueDescENS_10GFrameDescEEEESaISM_EERKS4_ISD_SaISD_EEEE(ptr noundef nonnull align 8 dereferenceable(65) %0, ptr noundef %1, ptr noundef %2) unnamed_addr #3 align 2 personality ptr @__gxx_personality_v0 {
  %4 = getelementptr inbounds i8, ptr %0, i64 16
  %5 = getelementptr inbounds i8, ptr %0, i64 24
  %6 = getelementptr inbounds i8, ptr %1, i64 16
  tail call void @llvm.memset.p0.i64(ptr noundef nonnull align 8 dereferenceable(32) %0, i8 0, i64 32, i1 false)
  %7 = load ptr, ptr %6, align 8
  %.not.i.i.not.i = icmp eq ptr %7, null
  br i1 %.not.i.i.not.i, label %_ZNSt8functionIFSt6vectorIN2cv7GRunArgESaIS2_EERKNS1_4gapi6python14GPythonContextEEEC2ERKSB_.exit, label %8

8:                                                ; preds = %3
  %9 = invoke noundef zeroext i1 %7(ptr noundef nonnull align 8 dereferenceable(16) %0, ptr noundef nonnull align 8 dereferenceable(16) %1, i32 noundef 2)
          to label %10 unwind label %14

10:                                               ; preds = %8
  %11 = getelementptr inbounds i8, ptr %1, i64 24
  %12 = load ptr, ptr %11, align 8
  store ptr %12, ptr %5, align 8
  %13 = load ptr, ptr %6, align 8
  store ptr %13, ptr %4, align 8
  br label %_ZNSt8functionIFSt6vectorIN2cv7GRunArgESaIS2_EERKNS1_4gapi6python14GPythonContextEEEC2ERKSB_.exit

14:                                               ; preds = %8
  %15 = landingpad { ptr, i32 }
          cleanup
  %16 = load ptr, ptr %4, align 8
  %.not.i.i = icmp eq ptr %16, null
  br i1 %.not.i.i, label %common.resume, label %17

17:                                               ; preds = %14
  %18 = invoke noundef zeroext i1 %16(ptr noundef nonnull align 8 dereferenceable(16) %0, ptr noundef nonnull align 8 dereferenceable(16) %0, i32 noundef 3)
          to label %common.resume unwind label %19

19:                                               ; preds = %17
  %20 = landingpad { ptr, i32 }
          catch ptr null
  %21 = extractvalue { ptr, i32 } %20, 0
  tail call void @__clang_call_terminate(ptr %21) #23
  unreachable

common.resume:                                    ; preds = %45, %.body, %14, %17
  %common.resume.op = phi { ptr, i32 } [ %15, %17 ], [ %15, %14 ], [ %36, %.body ], [ %36, %45 ]
  resume { ptr, i32 } %common.resume.op

_ZNSt8functionIFSt6vectorIN2cv7GRunArgESaIS2_EERKNS1_4gapi6python14GPythonContextEEEC2ERKSB_.exit: ; preds = %3, %10
  %22 = getelementptr inbounds i8, ptr %0, i64 32
  %23 = getelementptr inbounds i8, ptr %0, i64 48
  %24 = getelementptr inbounds i8, ptr %0, i64 56
  %25 = getelementptr inbounds i8, ptr %2, i64 16
  tail call void @llvm.memset.p0.i64(ptr noundef nonnull align 8 dereferenceable(32) %22, i8 0, i64 32, i1 false)
  %26 = load ptr, ptr %25, align 8
  %.not.i.i.not.i2 = icmp eq ptr %26, null
  br i1 %.not.i.i.not.i2, label %_ZNSt8functionIFN2cv4GArgERKSt6vectorINS0_4util7variantIJNS3_9monostateENS0_8GMatDescENS0_11GScalarDescENS0_10GArrayDescENS0_11GOpaqueDescENS0_10GFrameDescEEEESaISB_EERKS2_IS1_SaIS1_EEEEC2ERKSL_.exit, label %27

27:                                               ; preds = %_ZNSt8functionIFSt6vectorIN2cv7GRunArgESaIS2_EERKNS1_4gapi6python14GPythonContextEEEC2ERKSB_.exit
  %28 = invoke noundef zeroext i1 %26(ptr noundef nonnull align 8 dereferenceable(16) %22, ptr noundef nonnull align 8 dereferenceable(16) %2, i32 noundef 2)
          to label %29 unwind label %35

29:                                               ; preds = %27
  %30 = getelementptr inbounds i8, ptr %2, i64 24
  %31 = load ptr, ptr %30, align 8
  store ptr %31, ptr %24, align 8
  %32 = load ptr, ptr %25, align 8
  store ptr %32, ptr %23, align 8
  %33 = icmp ne ptr %32, null
  %34 = zext i1 %33 to i8
  br label %_ZNSt8functionIFN2cv4GArgERKSt6vectorINS0_4util7variantIJNS3_9monostateENS0_8GMatDescENS0_11GScalarDescENS0_10GArrayDescENS0_11GOpaqueDescENS0_10GFrameDescEEEESaISB_EERKS2_IS1_SaIS1_EEEEC2ERKSL_.exit

35:                                               ; preds = %27
  %36 = landingpad { ptr, i32 }
          cleanup
  %37 = load ptr, ptr %23, align 8
  %.not.i.i3 = icmp eq ptr %37, null
  br i1 %.not.i.i3, label %.body, label %38

38:                                               ; preds = %35
  %39 = invoke noundef zeroext i1 %37(ptr noundef nonnull align 8 dereferenceable(16) %22, ptr noundef nonnull align 8 dereferenceable(16) %22, i32 noundef 3)
          to label %.body unwind label %40

40:                                               ; preds = %38
  %41 = landingpad { ptr, i32 }
          catch ptr null
  %42 = extractvalue { ptr, i32 } %41, 0
  tail call void @__clang_call_terminate(ptr %42) #23
  unreachable

_ZNSt8functionIFN2cv4GArgERKSt6vectorINS0_4util7variantIJNS3_9monostateENS0_8GMatDescENS0_11GScalarDescENS0_10GArrayDescENS0_11GOpaqueDescENS0_10GFrameDescEEEESaISB_EERKS2_IS1_SaIS1_EEEEC2ERKSL_.exit: ; preds = %29, %_ZNSt8functionIFSt6vectorIN2cv7GRunArgESaIS2_EERKNS1_4gapi6python14GPythonContextEEEC2ERKSB_.exit
  %.not.i.i.i = phi i8 [ %34, %29 ], [ 0, %_ZNSt8functionIFSt6vectorIN2cv7GRunArgESaIS2_EERKNS1_4gapi6python14GPythonContextEEEC2ERKSB_.exit ]
  %43 = getelementptr inbounds i8, ptr %0, i64 64
  store i8 %.not.i.i.i, ptr %43, align 8
  ret void

.body:                                            ; preds = %35, %38
  %44 = load ptr, ptr %4, align 8
  %.not.i.i5 = icmp eq ptr %44, null
  br i1 %.not.i.i5, label %common.resume, label %45

45:                                               ; preds = %.body
  %46 = invoke noundef zeroext i1 %44(ptr noundef nonnull align 8 dereferenceable(16) %0, ptr noundef nonnull align 8 dereferenceable(16) %0, i32 noundef 3)
          to label %common.resume unwind label %47

47:                                               ; preds = %45
  %48 = landingpad { ptr, i32 }
          catch ptr null
  %49 = extractvalue { ptr, i32 } %48, 0
  tail call void @__clang_call_terminate(ptr %49) #23
  unreachable
}